target datalayout = "e-m:e-p270:32:32-p271:32:32-p272:64:64-i64:64-i128:128-f80:128-n8:16:32:64-S128"
target triple = "x86_64-pc-linux-gnu"

%struct.OnigCalloutArgsStruct = type { i32, i32, i32, ptr, ptr, ptr, ptr, ptr, ptr, i64, ptr, ptr, ptr, ptr, ptr }
%union.OnigValue = type { %struct.anon.0 }
%struct.anon.0 = type { ptr, ptr }
%struct.CalloutListEntry = type { i32, i32, i32, i32, ptr, ptr, i32, ptr, ptr, %union.anon }
%union.anon = type { %struct.anon.2 }
%struct.anon.2 = type { i32, i32, [4 x i32], [4 x %union.OnigValue] }

; Function Attrs: nounwind uwtable
define dso_local i32 @onig_get_arg_by_callout_args(ptr noundef %0, i32 noundef %1, ptr noundef %2, ptr noundef %3) #0 {
  %5 = alloca i32, align 4
  %6 = alloca ptr, align 8
  %7 = alloca i32, align 4
  %8 = alloca ptr, align 8
  %9 = alloca ptr, align 8
  %10 = alloca i32, align 4
  %11 = alloca ptr, align 8
  %12 = alloca i32, align 4
  store ptr %0, ptr %6, align 8, !tbaa !45
  store i32 %1, ptr %7, align 4, !tbaa !9
  store ptr %2, ptr %8, align 8, !tbaa !17
  store ptr %3, ptr %9, align 8, !tbaa !17
  call void @llvm.lifetime.start.p0(i64 4, ptr %10) #9
  call void @llvm.lifetime.start.p0(i64 8, ptr %11) #9
  %13 = load ptr, ptr %6, align 8, !tbaa !45
  %14 = getelementptr inbounds nuw %struct.OnigCalloutArgsStruct, ptr %13, i32 0, i32 2
  %15 = load i32, ptr %14, align 8, !tbaa !54
  store i32 %15, ptr %10, align 4, !tbaa !9
  %16 = load ptr, ptr %6, align 8, !tbaa !45
  %17 = getelementptr inbounds nuw %struct.OnigCalloutArgsStruct, ptr %16, i32 0, i32 3
  %18 = load ptr, ptr %17, align 8, !tbaa !61
  %19 = load i32, ptr %10, align 4, !tbaa !9
  %20 = call ptr @onig_reg_callout_list_at(ptr noundef %18, i32 noundef %19)
  store ptr %20, ptr %11, align 8, !tbaa !17
  %21 = load ptr, ptr %11, align 8, !tbaa !17
  %22 = icmp eq ptr %21, null
  br i1 %22, label %23, label %24

23:                                               ; preds = %4
  store i32 -30, ptr %5, align 4
  store i32 1, ptr %12, align 4
  br label %54

24:                                               ; preds = %4
  %25 = load ptr, ptr %11, align 8, !tbaa !17
  %26 = getelementptr inbounds nuw %struct.CalloutListEntry, ptr %25, i32 0, i32 1
  %27 = load i32, ptr %26, align 4, !tbaa !214
  %28 = icmp eq i32 %27, 1
  br i1 %28, label %29, label %53

29:                                               ; preds = %24
  %30 = load ptr, ptr %8, align 8, !tbaa !17
  %31 = icmp ne ptr %30, null
  br i1 %31, label %32, label %41

32:                                               ; preds = %29
  %33 = load ptr, ptr %11, align 8, !tbaa !17
  %34 = getelementptr inbounds nuw %struct.CalloutListEntry, ptr %33, i32 0, i32 9
  %35 = getelementptr inbounds nuw %struct.anon.2, ptr %34, i32 0, i32 2
  %36 = load i32, ptr %7, align 4, !tbaa !9
  %37 = sext i32 %36 to i64
  %38 = getelementptr inbounds [4 x i32], ptr %35, i64 0, i64 %37
  %39 = load i32, ptr %38, align 4, !tbaa !59
  %40 = load ptr, ptr %8, align 8, !tbaa !17
  store i32 %39, ptr %40, align 4, !tbaa !9
  br label %41

41:                                               ; preds = %32, %29
  %42 = load ptr, ptr %9, align 8, !tbaa !17
  %43 = icmp ne ptr %42, null
  br i1 %43, label %44, label %52

44:                                               ; preds = %41
  %45 = load ptr, ptr %9, align 8, !tbaa !17
  %46 = load ptr, ptr %11, align 8, !tbaa !17
  %47 = getelementptr inbounds nuw %struct.CalloutListEntry, ptr %46, i32 0, i32 9
  %48 = getelementptr inbounds nuw %struct.anon.2, ptr %47, i32 0, i32 3
  %49 = load i32, ptr %7, align 4, !tbaa !9
  %50 = sext i32 %49 to i64
  %51 = getelementptr inbounds [4 x %union.OnigValue], ptr %48, i64 0, i64 %50
  call void @llvm.memcpy.p0.p0.i64(ptr align 8 %45, ptr align 8 %51, i64 16, i1 false), !tbaa.struct !58
  br label %52

52:                                               ; preds = %44, %41
  store i32 0, ptr %5, align 4
  store i32 1, ptr %12, align 4
  br label %54

53:                                               ; preds = %24
  store i32 -30, ptr %5, align 4
  store i32 1, ptr %12, align 4
  br label %54

54:                                               ; preds = %53, %52, %23
  call void @llvm.lifetime.end.p0(i64 8, ptr %11) #9
  call void @llvm.lifetime.end.p0(i64 4, ptr %10) #9
  %55 = load i32, ptr %5, align 4
  ret i32 %55
}

; Function Attrs: nounwind uwtable
define dso_local i32 @onig_builtin_error(ptr noundef %0, ptr noundef %1) #0 {
  %3 = alloca i32, align 4
  %4 = alloca ptr, align 8
  %5 = alloca ptr, align 8
  %6 = alloca i32, align 4
  %7 = alloca i32, align 4
  %8 = alloca %union.OnigValue, align 8
  %9 = alloca i32, align 4
  store ptr %0, ptr %4, align 8, !tbaa !45
  store ptr %1, ptr %5, align 8, !tbaa !17
  call void @llvm.lifetime.start.p0(i64 4, ptr %6) #9
  call void @llvm.lifetime.start.p0(i64 4, ptr %7) #9
  call void @llvm.lifetime.start.p0(i64 16, ptr %8) #9
  %10 = load ptr, ptr %4, align 8, !tbaa !45
  %11 = call i32 @onig_get_arg_by_callout_args(ptr noundef %10, i32 noundef 0, ptr noundef null, ptr noundef %8)
  store i32 %11, ptr %6, align 4, !tbaa !9
  %12 = load i32, ptr %6, align 4, !tbaa !9
  %13 = icmp ne i32 %12, 0
  br i1 %13, label %14, label %16

14:                                               ; preds = %2
  %15 = load i32, ptr %6, align 4, !tbaa !9
  store i32 %15, ptr %3, align 4
  store i32 1, ptr %9, align 4
  br label %30

16:                                               ; preds = %2
  %17 = load i64, ptr %8, align 8, !tbaa !59
  %18 = trunc i64 %17 to i32
  store i32 %18, ptr %7, align 4, !tbaa !9
  %19 = load i32, ptr %7, align 4, !tbaa !9
  %20 = icmp sge i32 %19, 0
  br i1 %20, label %21, label %22

21:                                               ; preds = %16
  store i32 -230, ptr %7, align 4, !tbaa !9
  br label %28

22:                                               ; preds = %16
  %23 = load i32, ptr %7, align 4, !tbaa !9
  %24 = call i32 @onig_is_error_code_needs_param(i32 noundef %23)
  %25 = icmp ne i32 %24, 0
  br i1 %25, label %26, label %27

26:                                               ; preds = %22
  store i32 -230, ptr %7, align 4, !tbaa !9
  br label %27

27:                                               ; preds = %26, %22
  br label %28

28:                                               ; preds = %27, %21
  %29 = load i32, ptr %7, align 4, !tbaa !9
  store i32 %29, ptr %3, align 4
  store i32 1, ptr %9, align 4
  br label %30

30:                                               ; preds = %28, %14
  call void @llvm.lifetime.end.p0(i64 16, ptr %8) #9
  call void @llvm.lifetime.end.p0(i64 4, ptr %7) #9
  call void @llvm.lifetime.end.p0(i64 4, ptr %6) #9
  %31 = load i32, ptr %3, align 4
  ret i32 %31
}